; Function Attrs: mustprogress uwtable
define dso_local void @_ZN23btHashedSimplePairCacheC2Ev(ptr noundef nonnull align 8 dereferenceable(104) %this) unnamed_addr #0 align 2 personality ptr @__gxx_personality_v0 {
if.then.i:
  store ptr getelementptr inbounds ({ [7 x ptr] }, ptr @_ZTV23btHashedSimplePairCache, i64 0, i32 0, i64 2), ptr %this, align 8
  %m_ownsMemory.i.i = getelementptr inbounds i8, ptr %this, i64 32
  store i8 1, ptr %m_ownsMemory.i.i, align 8
  %m_data.i.i = getelementptr inbounds i8, ptr %this, i64 24
  store ptr null, ptr %m_data.i.i, align 8
  %m_size.i.i = getelementptr inbounds i8, ptr %this, i64 12
  store i32 0, ptr %m_size.i.i, align 4
  %m_capacity.i.i = getelementptr inbounds i8, ptr %this, i64 16
  store i32 0, ptr %m_capacity.i.i, align 8
  %m_ownsMemory.i.i3 = getelementptr inbounds i8, ptr %this, i64 64
  store i8 1, ptr %m_ownsMemory.i.i3, align 8
  %m_data.i.i4 = getelementptr inbounds i8, ptr %this, i64 56
  store ptr null, ptr %m_data.i.i4, align 8
  %m_size.i.i5 = getelementptr inbounds i8, ptr %this, i64 44
  store i32 0, ptr %m_size.i.i5, align 4
  %m_capacity.i.i6 = getelementptr inbounds i8, ptr %this, i64 48
  store i32 0, ptr %m_capacity.i.i6, align 8
  %m_ownsMemory.i.i7 = getelementptr inbounds i8, ptr %this, i64 96
  store i8 1, ptr %m_ownsMemory.i.i7, align 8
  %m_data.i.i8 = getelementptr inbounds i8, ptr %this, i64 88
  store ptr null, ptr %m_data.i.i8, align 8
  %m_size.i.i9 = getelementptr inbounds i8, ptr %this, i64 76
  store i32 0, ptr %m_size.i.i9, align 4
  %m_capacity.i.i10 = getelementptr inbounds i8, ptr %this, i64 80
  store i32 0, ptr %m_capacity.i.i10, align 8
  %call.i.i.i15 = invoke noundef ptr @_Z22btAlignedAllocInternalmi(i64 noundef 32, i32 noundef 16)
          to label %call.i.i.i.noexc unwind label %lpad5

call.i.i.i.noexc:                                 ; preds = %if.then.i
  %0 = load i32, ptr %m_size.i.i, align 4
  %cmp4.i.i = icmp sgt i32 %0, 0
  br i1 %cmp4.i.i, label %for.body.lr.ph.i.i, label %_ZNK20btAlignedObjectArrayI12btSimplePairE4copyEiiPS0_.exit.i

for.body.lr.ph.i.i:                               ; preds = %call.i.i.i.noexc
  %wide.trip.count.i.i = zext nneg i32 %0 to i64
  br label %for.body.i.i

for.body.i.i:                                     ; preds = %for.body.i.i, %for.body.lr.ph.i.i
  %indvars.iv.i.i = phi i64 [ 0, %for.body.lr.ph.i.i ], [ %indvars.iv.next.i.i, %for.body.i.i ]
  %arrayidx.i.i = getelementptr inbounds %struct.btSimplePair, ptr %call.i.i.i15, i64 %indvars.iv.i.i
  %1 = load ptr, ptr %m_data.i.i, align 8
  %arrayidx3.i.i = getelementptr inbounds %struct.btSimplePair, ptr %1, i64 %indvars.iv.i.i
  tail call void @llvm.memcpy.p0.p0.i64(ptr noundef nonnull align 8 dereferenceable(16) %arrayidx.i.i, ptr noundef nonnull align 8 dereferenceable(16) %arrayidx3.i.i, i64 16, i1 false)
  %indvars.iv.next.i.i = add nuw nsw i64 %indvars.iv.i.i, 1
  %exitcond.not.i.i = icmp eq i64 %indvars.iv.next.i.i, %wide.trip.count.i.i
  br i1 %exitcond.not.i.i, label %_ZNK20btAlignedObjectArrayI12btSimplePairE4copyEiiPS0_.exit.i, label %for.body.i.i, !llvm.loop !5

_ZNK20btAlignedObjectArrayI12btSimplePairE4copyEiiPS0_.exit.i: ; preds = %for.body.i.i, %call.i.i.i.noexc
  %2 = load ptr, ptr %m_data.i.i, align 8
  %tobool.not.i6.i = icmp eq ptr %2, null
  br i1 %tobool.not.i6.i, label %invoke.cont6, label %if.then.i7.i

if.then.i7.i:                                     ; preds = %_ZNK20btAlignedObjectArrayI12btSimplePairE4copyEiiPS0_.exit.i
  %3 = load i8, ptr %m_ownsMemory.i.i, align 8
  %4 = and i8 %3, 1
  %tobool2.not.i.i = icmp eq i8 %4, 0
  br i1 %tobool2.not.i.i, label %invoke.cont6, label %if.then3.i.i

if.then3.i.i:                                     ; preds = %if.then.i7.i
  invoke void @_Z21btAlignedFreeInternalPv(ptr noundef nonnull %2)
          to label %invoke.cont6 unwind label %lpad5

invoke.cont6:                                     ; preds = %if.then3.i.i, %if.then.i7.i, %_ZNK20btAlignedObjectArrayI12btSimplePairE4copyEiiPS0_.exit.i
  store i8 1, ptr %m_ownsMemory.i.i, align 8
  store ptr %call.i.i.i15, ptr %m_data.i.i, align 8
  store i32 2, ptr %m_capacity.i.i, align 8
  invoke void @_ZN23btHashedSimplePairCache10growTablesEv(ptr noundef nonnull align 8 dereferenceable(104) %this)
          to label %invoke.cont7 unwind label %lpad5

invoke.cont7:                                     ; preds = %invoke.cont6
  ret void

lpad5:                                            ; preds = %if.then3.i.i, %if.then.i, %invoke.cont6
  %5 = landingpad { ptr, i32 }
          cleanup
  %m_next = getelementptr inbounds i8, ptr %this, i64 72
  %m_hashTable = getelementptr inbounds i8, ptr %this, i64 40
  %m_overlappingPairArray = getelementptr inbounds i8, ptr %this, i64 8
  tail call void @_ZN20btAlignedObjectArrayIiED2Ev(ptr noundef nonnull align 8 dereferenceable(25) %m_next) #8
  tail call void @_ZN20btAlignedObjectArrayIiED2Ev(ptr noundef nonnull align 8 dereferenceable(25) %m_hashTable) #8
  tail call void @_ZN20btAlignedObjectArrayI12btSimplePairED2Ev(ptr noundef nonnull align 8 dereferenceable(25) %m_overlappingPairArray) #8
  resume { ptr, i32 } %5
}